target datalayout = "e-m:e-p270:32:32-p271:32:32-p272:64:64-i64:64-i128:128-f80:128-n8:16:32:64-S128"
target triple = "x86_64-pc-linux-gnu"

%struct.Res_Sim_t_ = type { ptr, i32, i32, i32, i32, i32, i32, i32, i32, i32, i32, ptr, ptr, ptr, ptr, i32, i32, ptr, i64 }
%struct.Vec_Ptr_t_ = type { i32, i32, ptr }
%struct.Abc_Ntk_t_ = type { i32, i32, ptr, ptr, ptr, ptr, ptr, ptr, ptr, ptr, ptr, ptr, ptr, [11 x i32], i32, i32, i32, i32, ptr, i32, ptr, ptr, i32, i32, i32, double, i32, %struct.Vec_Int_t_, ptr, ptr, ptr, ptr, ptr, float, i32, ptr, ptr, ptr, ptr, ptr, ptr, ptr, ptr, ptr, ptr, ptr, ptr, ptr, ptr, ptr, ptr, ptr, ptr, ptr, ptr, ptr, ptr }
%struct.Vec_Int_t_ = type { i32, i32, ptr }
%struct.Abc_Obj_t_ = type { ptr, ptr, i32, i32, %struct.Vec_Int_t_, %struct.Vec_Int_t_, %union.anon, %union.anon.0 }
%union.anon = type { ptr }
%union.anon.0 = type { ptr }

; Function Attrs: inlinehint nounwind uwtable
define internal i32 @Abc_InfoRandomWord() #4 {
  %1 = call i32 @rand() #7
  %2 = shl i32 %1, 24
  %3 = call i32 @rand() #7
  %4 = shl i32 %3, 12
  %5 = xor i32 %2, %4
  %6 = call i32 @rand() #7
  %7 = xor i32 %5, %6
  ret i32 %7
}

; Function Attrs: inlinehint nounwind uwtable
define internal i32 @Vec_PtrSize(ptr noundef %0) #4 {
  %2 = alloca ptr, align 8
  store ptr %0, ptr %2, align 8, !tbaa !44
  %3 = load ptr, ptr %2, align 8, !tbaa !44
  %4 = getelementptr inbounds nuw %struct.Vec_Ptr_t_, ptr %3, i32 0, i32 1
  %5 = load i32, ptr %4, align 4, !tbaa !45
  ret i32 %5
}

; Function Attrs: inlinehint nounwind uwtable
define internal void @Abc_InfoRandom(ptr noundef %0, i32 noundef %1) #4 {
  %3 = alloca ptr, align 8
  %4 = alloca i32, align 4
  %5 = alloca i32, align 4
  store ptr %0, ptr %3, align 8, !tbaa !28
  store i32 %1, ptr %4, align 4, !tbaa !3
  call void @llvm.lifetime.start.p0(i64 4, ptr %5) #7
  %6 = load i32, ptr %4, align 4, !tbaa !3
  %7 = sub nsw i32 %6, 1
  store i32 %7, ptr %5, align 4, !tbaa !3
  br label %8

8:                                                ; preds = %17, %2
  %9 = load i32, ptr %5, align 4, !tbaa !3
  %10 = icmp sge i32 %9, 0
  br i1 %10, label %11, label %20

11:                                               ; preds = %8
  %12 = call i32 @Abc_InfoRandomWord()
  %13 = load ptr, ptr %3, align 8, !tbaa !28
  %14 = load i32, ptr %5, align 4, !tbaa !3
  %15 = sext i32 %14 to i64
  %16 = getelementptr inbounds i32, ptr %13, i64 %15
  store i32 %12, ptr %16, align 4, !tbaa !3
  br label %17

17:                                               ; preds = %11
  %18 = load i32, ptr %5, align 4, !tbaa !3
  %19 = add nsw i32 %18, -1
  store i32 %19, ptr %5, align 4, !tbaa !3
  br label %8, !llvm.loop !71

20:                                               ; preds = %8
  call void @llvm.lifetime.end.p0(i64 4, ptr %5) #7
  ret void
}

; Function Attrs: nounwind uwtable
define void @Abc_InfoRandomBytes(ptr noundef %0, i32 noundef %1) #0 {
  %3 = alloca ptr, align 8
  %4 = alloca i32, align 4
  %5 = alloca i32, align 4
  %6 = alloca i32, align 4
  store ptr %0, ptr %3, align 8, !tbaa !28
  store i32 %1, ptr %4, align 4, !tbaa !3
  call void @llvm.lifetime.start.p0(i64 4, ptr %5) #7
  call void @llvm.lifetime.start.p0(i64 4, ptr %6) #7
  %7 = load i32, ptr %4, align 4, !tbaa !3
  %8 = sub nsw i32 %7, 1
  store i32 %8, ptr %5, align 4, !tbaa !3
  br label %9

9:                                                ; preds = %67, %2
  %10 = load i32, ptr %5, align 4, !tbaa !3
  %11 = icmp sge i32 %10, 0
  br i1 %11, label %12, label %70

12:                                               ; preds = %9
  %13 = call i32 @rand() #7
  store i32 %13, ptr %6, align 4, !tbaa !3
  %14 = load i32, ptr %6, align 4, !tbaa !3
  %15 = and i32 %14, 1
  %16 = icmp ne i32 %15, 0
  %17 = select i1 %16, i32 255, i32 0
  %18 = load ptr, ptr %3, align 8, !tbaa !28
  %19 = load i32, ptr %5, align 4, !tbaa !3
  %20 = sext i32 %19 to i64
  %21 = getelementptr inbounds i32, ptr %18, i64 %20
  store i32 %17, ptr %21, align 4, !tbaa !3
  %22 = load ptr, ptr %3, align 8, !tbaa !28
  %23 = load i32, ptr %5, align 4, !tbaa !3
  %24 = sext i32 %23 to i64
  %25 = getelementptr inbounds i32, ptr %22, i64 %24
  %26 = load i32, ptr %25, align 4, !tbaa !3
  %27 = shl i32 %26, 8
  %28 = load i32, ptr %6, align 4, !tbaa !3
  %29 = and i32 %28, 2
  %30 = icmp ne i32 %29, 0
  %31 = select i1 %30, i32 255, i32 0
  %32 = or i32 %27, %31
  %33 = load ptr, ptr %3, align 8, !tbaa !28
  %34 = load i32, ptr %5, align 4, !tbaa !3
  %35 = sext i32 %34 to i64
  %36 = getelementptr inbounds i32, ptr %33, i64 %35
  store i32 %32, ptr %36, align 4, !tbaa !3
  %37 = load ptr, ptr %3, align 8, !tbaa !28
  %38 = load i32, ptr %5, align 4, !tbaa !3
  %39 = sext i32 %38 to i64
  %40 = getelementptr inbounds i32, ptr %37, i64 %39
  %41 = load i32, ptr %40, align 4, !tbaa !3
  %42 = shl i32 %41, 8
  %43 = load i32, ptr %6, align 4, !tbaa !3
  %44 = and i32 %43, 4
  %45 = icmp ne i32 %44, 0
  %46 = select i1 %45, i32 255, i32 0
  %47 = or i32 %42, %46
  %48 = load ptr, ptr %3, align 8, !tbaa !28
  %49 = load i32, ptr %5, align 4, !tbaa !3
  %50 = sext i32 %49 to i64
  %51 = getelementptr inbounds i32, ptr %48, i64 %50
  store i32 %47, ptr %51, align 4, !tbaa !3
  %52 = load ptr, ptr %3, align 8, !tbaa !28
  %53 = load i32, ptr %5, align 4, !tbaa !3
  %54 = sext i32 %53 to i64
  %55 = getelementptr inbounds i32, ptr %52, i64 %54
  %56 = load i32, ptr %55, align 4, !tbaa !3
  %57 = shl i32 %56, 8
  %58 = load i32, ptr %6, align 4, !tbaa !3
  %59 = and i32 %58, 8
  %60 = icmp ne i32 %59, 0
  %61 = select i1 %60, i32 255, i32 0
  %62 = or i32 %57, %61
  %63 = load ptr, ptr %3, align 8, !tbaa !28
  %64 = load i32, ptr %5, align 4, !tbaa !3
  %65 = sext i32 %64 to i64
  %66 = getelementptr inbounds i32, ptr %63, i64 %65
  store i32 %62, ptr %66, align 4, !tbaa !3
  br label %67

67:                                               ; preds = %12
  %68 = load i32, ptr %5, align 4, !tbaa !3
  %69 = add nsw i32 %68, -1
  store i32 %69, ptr %5, align 4, !tbaa !3
  br label %9, !llvm.loop !64

70:                                               ; preds = %9
  call void @llvm.lifetime.end.p0(i64 4, ptr %6) #7
  call void @llvm.lifetime.end.p0(i64 4, ptr %5) #7
  ret void
}

; Function Attrs: inlinehint nounwind uwtable
define internal ptr @Vec_PtrEntry(ptr noundef %0, i32 noundef %1) #4 {
  %3 = alloca ptr, align 8
  %4 = alloca i32, align 4
  store ptr %0, ptr %3, align 8, !tbaa !44
  store i32 %1, ptr %4, align 4, !tbaa !3
  %5 = load ptr, ptr %3, align 8, !tbaa !44
  %6 = getelementptr inbounds nuw %struct.Vec_Ptr_t_, ptr %5, i32 0, i32 2
  %7 = load ptr, ptr %6, align 8, !tbaa !61
  %8 = load i32, ptr %4, align 4, !tbaa !3
  %9 = sext i32 %8 to i64
  %10 = getelementptr inbounds ptr, ptr %7, i64 %9
  %11 = load ptr, ptr %10, align 8, !tbaa !27
  ret ptr %11
}

; Function Attrs: inlinehint nounwind uwtable
define internal ptr @Abc_NtkPi(ptr noundef %0, i32 noundef %1) #4 {
  %3 = alloca ptr, align 8
  %4 = alloca i32, align 4
  store ptr %0, ptr %3, align 8, !tbaa !37
  store i32 %1, ptr %4, align 4, !tbaa !3
  %5 = load ptr, ptr %3, align 8, !tbaa !37
  %6 = getelementptr inbounds nuw %struct.Abc_Ntk_t_, ptr %5, i32 0, i32 6
  %7 = load ptr, ptr %6, align 8, !tbaa !70
  %8 = load i32, ptr %4, align 4, !tbaa !3
  %9 = call ptr @Vec_PtrEntry(ptr noundef %7, i32 noundef %8)
  ret ptr %9
}

; Function Attrs: inlinehint nounwind uwtable
define internal i32 @Abc_NtkPiNum(ptr noundef %0) #4 {
  %2 = alloca ptr, align 8
  store ptr %0, ptr %2, align 8, !tbaa !37
  %3 = load ptr, ptr %2, align 8, !tbaa !37
  %4 = getelementptr inbounds nuw %struct.Abc_Ntk_t_, ptr %3, i32 0, i32 6
  %5 = load ptr, ptr %4, align 8, !tbaa !70
  %6 = call i32 @Vec_PtrSize(ptr noundef %5)
  ret i32 %6
}

; Function Attrs: nounwind uwtable
define void @Res_SimSetRandomBytes(ptr noundef %0) #0 {
  %2 = alloca ptr, align 8
  %3 = alloca ptr, align 8
  %4 = alloca ptr, align 8
  %5 = alloca i32, align 4
  store ptr %0, ptr %2, align 8, !tbaa !7
  call void @llvm.lifetime.start.p0(i64 8, ptr %3) #7
  call void @llvm.lifetime.start.p0(i64 8, ptr %4) #7
  call void @llvm.lifetime.start.p0(i64 4, ptr %5) #7
  store i32 0, ptr %5, align 4, !tbaa !3
  br label %6

6:                                                ; preds = %45, %1
  %7 = load i32, ptr %5, align 4, !tbaa !3
  %8 = load ptr, ptr %2, align 8, !tbaa !7
  %9 = getelementptr inbounds nuw %struct.Res_Sim_t_, ptr %8, i32 0, i32 0
  %10 = load ptr, ptr %9, align 8, !tbaa !38
  %11 = call i32 @Abc_NtkPiNum(ptr noundef %10)
  %12 = icmp slt i32 %7, %11
  br i1 %12, label %13, label %19

13:                                               ; preds = %6
  %14 = load ptr, ptr %2, align 8, !tbaa !7
  %15 = getelementptr inbounds nuw %struct.Res_Sim_t_, ptr %14, i32 0, i32 0
  %16 = load ptr, ptr %15, align 8, !tbaa !38
  %17 = load i32, ptr %5, align 4, !tbaa !3
  %18 = call ptr @Abc_NtkPi(ptr noundef %16, i32 noundef %17)
  store ptr %18, ptr %3, align 8, !tbaa !65
  br label %19

19:                                               ; preds = %13, %6
  %20 = phi i1 [ false, %6 ], [ true, %13 ]
  br i1 %20, label %21, label %48

21:                                               ; preds = %19
  %22 = load ptr, ptr %2, align 8, !tbaa !7
  %23 = getelementptr inbounds nuw %struct.Res_Sim_t_, ptr %22, i32 0, i32 11
  %24 = load ptr, ptr %23, align 8, !tbaa !22
  %25 = load ptr, ptr %3, align 8, !tbaa !65
  %26 = getelementptr inbounds nuw %struct.Abc_Obj_t_, ptr %25, i32 0, i32 2
  %27 = load i32, ptr %26, align 8, !tbaa !67
  %28 = call ptr @Vec_PtrEntry(ptr noundef %24, i32 noundef %27)
  store ptr %28, ptr %4, align 8, !tbaa !28
  %29 = load i32, ptr %5, align 4, !tbaa !3
  %30 = load ptr, ptr %2, align 8, !tbaa !7
  %31 = getelementptr inbounds nuw %struct.Res_Sim_t_, ptr %30, i32 0, i32 1
  %32 = load i32, ptr %31, align 8, !tbaa !39
  %33 = icmp slt i32 %29, %32
  br i1 %33, label %34, label %39

34:                                               ; preds = %21
  %35 = load ptr, ptr %4, align 8, !tbaa !28
  %36 = load ptr, ptr %2, align 8, !tbaa !7
  %37 = getelementptr inbounds nuw %struct.Res_Sim_t_, ptr %36, i32 0, i32 6
  %38 = load i32, ptr %37, align 4, !tbaa !17
  call void @Abc_InfoRandomBytes(ptr noundef %35, i32 noundef %38)
  br label %44

39:                                               ; preds = %21
  %40 = load ptr, ptr %4, align 8, !tbaa !28
  %41 = load ptr, ptr %2, align 8, !tbaa !7
  %42 = getelementptr inbounds nuw %struct.Res_Sim_t_, ptr %41, i32 0, i32 6
  %43 = load i32, ptr %42, align 4, !tbaa !17
  call void @Abc_InfoRandom(ptr noundef %40, i32 noundef %43)
  br label %44

44:                                               ; preds = %39, %34
  br label %45

45:                                               ; preds = %44
  %46 = load i32, ptr %5, align 4, !tbaa !3
  %47 = add nsw i32 %46, 1
  store i32 %47, ptr %5, align 4, !tbaa !3
  br label %6, !llvm.loop !69

48:                                               ; preds = %19
  call void @llvm.lifetime.end.p0(i64 4, ptr %5) #7
  call void @llvm.lifetime.end.p0(i64 8, ptr %4) #7
  call void @llvm.lifetime.end.p0(i64 8, ptr %3) #7
  ret void
}