; Function Attrs: nounwind uwtable
define void @Res_SimSetRandomBytes(ptr noundef readonly captures(none) %0) local_unnamed_addr #4 {
  %2 = load ptr, ptr %0, align 8, !tbaa !36
  %3 = getelementptr i8, ptr %2, i64 40
  %.val1219 = load ptr, ptr %3, align 8, !tbaa !61
  %4 = getelementptr i8, ptr %.val1219, i64 4
  %.val12.val20 = load i32, ptr %4, align 4, !tbaa !22
  %5 = icmp sgt i32 %.val12.val20, 0
  br i1 %5, label %.lr.ph, label %.critedge

.lr.ph:                                           ; preds = %1
  %6 = getelementptr inbounds nuw i8, ptr %0, i64 48
  %7 = getelementptr inbounds nuw i8, ptr %0, i64 8
  %8 = getelementptr inbounds nuw i8, ptr %0, i64 28
  br label %9

9:                                                ; preds = %.lr.ph, %Abc_InfoRandomBytes.exit
  %indvars.iv = phi i64 [ 0, %.lr.ph ], [ %indvars.iv.next, %Abc_InfoRandomBytes.exit ]
  %.val1222 = phi ptr [ %.val1219, %.lr.ph ], [ %.val12, %Abc_InfoRandomBytes.exit ]
  %10 = getelementptr i8, ptr %.val1222, i64 8
  %.val13.val = load ptr, ptr %10, align 8, !tbaa !25
  %11 = getelementptr inbounds nuw ptr, ptr %.val13.val, i64 %indvars.iv
  %12 = load ptr, ptr %11, align 8, !tbaa !19
  %13 = load ptr, ptr %6, align 8, !tbaa !26
  %14 = getelementptr inbounds nuw i8, ptr %12, i64 16
  %15 = load i32, ptr %14, align 8, !tbaa !62
  %16 = getelementptr i8, ptr %13, i64 8
  %.val = load ptr, ptr %16, align 8, !tbaa !25
  %17 = sext i32 %15 to i64
  %18 = getelementptr inbounds ptr, ptr %.val, i64 %17
  %19 = load ptr, ptr %18, align 8, !tbaa !19
  %20 = load i32, ptr %7, align 8, !tbaa !37
  %21 = sext i32 %20 to i64
  %22 = icmp slt i64 %indvars.iv, %21
  %23 = load i32, ptr %8, align 4, !tbaa !14
  %24 = icmp sgt i32 %23, 0
  br i1 %22, label %25, label %41

25:                                               ; preds = %9
  br i1 %24, label %.lr.ph.preheader.i, label %Abc_InfoRandomBytes.exit

.lr.ph.preheader.i:                               ; preds = %25
  %26 = zext nneg i32 %23 to i64
  br label %.lr.ph.i

.lr.ph.i:                                         ; preds = %.lr.ph.i, %.lr.ph.preheader.i
  %indvars.iv.i = phi i64 [ %26, %.lr.ph.preheader.i ], [ %indvars.iv.next.i, %.lr.ph.i ]
  %indvars.iv.next.i = add nsw i64 %indvars.iv.i, -1
  %27 = tail call i32 @rand() #15
  %28 = and i32 %27, 1
  %.not.i = icmp eq i32 %28, 0
  %29 = select i1 %.not.i, i32 0, i32 -16777216
  %30 = getelementptr inbounds nuw i32, ptr %19, i64 %indvars.iv.next.i
  %31 = and i32 %27, 2
  %.not20.i = icmp eq i32 %31, 0
  %32 = select i1 %.not20.i, i32 0, i32 16711680
  %33 = or disjoint i32 %29, %32
  %34 = and i32 %27, 4
  %.not21.i = icmp eq i32 %34, 0
  %35 = select i1 %.not21.i, i32 0, i32 65280
  %36 = or disjoint i32 %33, %35
  %37 = and i32 %27, 8
  %.not22.i = icmp eq i32 %37, 0
  %38 = select i1 %.not22.i, i32 0, i32 255
  %39 = or disjoint i32 %36, %38
  store i32 %39, ptr %30, align 4, !tbaa !59
  %40 = icmp samesign ugt i64 %indvars.iv.i, 1
  br i1 %40, label %.lr.ph.i, label %Abc_InfoRandomBytes.exit, !llvm.loop !60

41:                                               ; preds = %9
  br i1 %24, label %.lr.ph.preheader.i14, label %Abc_InfoRandomBytes.exit

.lr.ph.preheader.i14:                             ; preds = %41
  %42 = zext nneg i32 %23 to i64
  br label %.lr.ph.i15

.lr.ph.i15:                                       ; preds = %.lr.ph.i15, %.lr.ph.preheader.i14
  %indvars.iv.i16 = phi i64 [ %42, %.lr.ph.preheader.i14 ], [ %indvars.iv.next.i17, %.lr.ph.i15 ]
  %indvars.iv.next.i17 = add nsw i64 %indvars.iv.i16, -1
  %43 = tail call i32 @rand() #15
  %44 = shl i32 %43, 24
  %45 = tail call i32 @rand() #15
  %46 = shl i32 %45, 12
  %47 = xor i32 %46, %44
  %48 = tail call i32 @rand() #15
  %49 = xor i32 %47, %48
  %50 = getelementptr inbounds nuw i32, ptr %19, i64 %indvars.iv.next.i17
  store i32 %49, ptr %50, align 4, !tbaa !59
  %51 = icmp samesign ugt i64 %indvars.iv.i16, 1
  br i1 %51, label %.lr.ph.i15, label %Abc_InfoRandomBytes.exit, !llvm.loop !65

Abc_InfoRandomBytes.exit:                         ; preds = %.lr.ph.i15, %.lr.ph.i, %41, %25
  %indvars.iv.next = add nuw nsw i64 %indvars.iv, 1
  %52 = load ptr, ptr %0, align 8, !tbaa !36
  %53 = getelementptr i8, ptr %52, i64 40
  %.val12 = load ptr, ptr %53, align 8, !tbaa !61
  %54 = getelementptr i8, ptr %.val12, i64 4
  %.val12.val = load i32, ptr %54, align 4, !tbaa !22
  %55 = sext i32 %.val12.val to i64
  %56 = icmp slt i64 %indvars.iv.next, %55
  br i1 %56, label %9, label %.critedge, !llvm.loop !66

.critedge:                                        ; preds = %Abc_InfoRandomBytes.exit, %1
  ret void
}